target datalayout = "e-m:e-p270:32:32-p271:32:32-p272:64:64-i64:64-i128:128-f80:128-n8:16:32:64-S128"
target triple = "x86_64-unknown-linux-gnu"

%"class.v8::IndirectHandleBase" = type { ptr }
%"class.node::MemoryRetainer" = type { ptr }
%"class.std::__shared_count" = type { ptr }
%"class.std::shared_ptr.302" = type { %"class.std::__shared_ptr.303" }
%"class.std::__shared_ptr.303" = type { ptr, %"class.std::__shared_count" }
%"class.node::quic::Stream" = type { %"class.node::AsyncWrap", %"class.node::bob::SourceImpl.base", %"class.node::DataQueue::BackpressureListener", %"class.node::AliasedStruct.398", %"class.node::AliasedStruct.399", %"class.node::BaseObjectPtrImpl.396", i32, i32, %"class.std::unique_ptr.400", %"class.std::shared_ptr.302", %"class.std::vector.408", i32, i64, %"class.node::ListNode.413" }
%"class.node::AsyncWrap" = type { %"class.node::BaseObject", i32, i8, double, double }
%"class.node::BaseObject" = type { %"class.node::MemoryRetainer", %"class.v8::Global", ptr, ptr }
%"class.v8::Global" = type { %"class.v8::PersistentBase" }
%"class.v8::PersistentBase" = type { %"class.v8::IndirectHandleBase" }
%"class.node::bob::SourceImpl.base" = type <{ %"class.node::bob::Source", i8 }>
%"class.node::bob::Source" = type { ptr }
%"class.node::DataQueue::BackpressureListener" = type { ptr }
%"class.node::AliasedStruct.398" = type { ptr, %"class.std::shared_ptr.306", ptr, %"class.v8::Global.309" }
%"class.std::shared_ptr.306" = type { %"class.std::__shared_ptr.307" }
%"class.std::__shared_ptr.307" = type { ptr, %"class.std::__shared_count" }
%"class.v8::Global.309" = type { %"class.v8::PersistentBase.310" }
%"class.v8::PersistentBase.310" = type { %"class.v8::IndirectHandleBase" }
%"class.node::AliasedStruct.399" = type { ptr, %"class.std::shared_ptr.306", ptr, %"class.v8::Global.309" }
%"class.node::BaseObjectPtrImpl.396" = type { %union.anon.397 }
%union.anon.397 = type { ptr }
%"class.std::unique_ptr.400" = type { %"struct.std::__uniq_ptr_data.401" }
%"struct.std::__uniq_ptr_data.401" = type { %"class.std::__uniq_ptr_impl.402" }
%"class.std::__uniq_ptr_impl.402" = type { %"class.std::tuple.403" }
%"class.std::tuple.403" = type { %"struct.std::_Tuple_impl.404" }
%"struct.std::_Tuple_impl.404" = type { %"struct.std::_Head_base.407" }
%"struct.std::_Head_base.407" = type { ptr }
%"class.std::vector.408" = type { %"struct.std::_Vector_base.409" }
%"struct.std::_Vector_base.409" = type { %"struct.std::_Vector_base<v8::Local<v8::Value>, std::allocator<v8::Local<v8::Value>>>::_Vector_impl" }
%"struct.std::_Vector_base<v8::Local<v8::Value>, std::allocator<v8::Local<v8::Value>>>::_Vector_impl" = type { %"struct.std::_Vector_base<v8::Local<v8::Value>, std::allocator<v8::Local<v8::Value>>>::_Vector_impl_data" }
%"struct.std::_Vector_base<v8::Local<v8::Value>, std::allocator<v8::Local<v8::Value>>>::_Vector_impl_data" = type { ptr, ptr, ptr }
%"class.node::ListNode.413" = type { ptr, ptr }

; Function Attrs: mustprogress nounwind uwtable
define linkonce_odr dso_local void @_ZN4node8ListNodeINS_4quic6StreamEE6RemoveEv(ptr noundef nonnull align 8 dereferenceable(16) %this) #4 comdat align 2 {
entry:
  %this.addr = alloca ptr, align 8
  store ptr %this, ptr %this.addr, align 8
  %this1 = load ptr, ptr %this.addr, align 8
  %next_ = getelementptr inbounds %"class.node::ListNode.413", ptr %this1, i32 0, i32 1
  %0 = load ptr, ptr %next_, align 8
  %prev_ = getelementptr inbounds %"class.node::ListNode.413", ptr %this1, i32 0, i32 0
  %1 = load ptr, ptr %prev_, align 8
  %next_2 = getelementptr inbounds %"class.node::ListNode.413", ptr %1, i32 0, i32 1
  store ptr %0, ptr %next_2, align 8
  %prev_3 = getelementptr inbounds %"class.node::ListNode.413", ptr %this1, i32 0, i32 0
  %2 = load ptr, ptr %prev_3, align 8
  %next_4 = getelementptr inbounds %"class.node::ListNode.413", ptr %this1, i32 0, i32 1
  %3 = load ptr, ptr %next_4, align 8
  %prev_5 = getelementptr inbounds %"class.node::ListNode.413", ptr %3, i32 0, i32 0
  store ptr %2, ptr %prev_5, align 8
  %prev_6 = getelementptr inbounds %"class.node::ListNode.413", ptr %this1, i32 0, i32 0
  store ptr %this1, ptr %prev_6, align 8
  %next_7 = getelementptr inbounds %"class.node::ListNode.413", ptr %this1, i32 0, i32 1
  store ptr %this1, ptr %next_7, align 8
  ret void
}

; Function Attrs: mustprogress nounwind uwtable
define dso_local void @_ZN4node4quic6Stream10UnscheduleEv(ptr noundef nonnull align 8 dereferenceable(256) %this) #4 align 2 {
entry:
  %this.addr = alloca ptr, align 8
  store ptr %this, ptr %this.addr, align 8
  %this1 = load ptr, ptr %this.addr, align 8
  %stream_queue_ = getelementptr inbounds %"class.node::quic::Stream", ptr %this1, i32 0, i32 13
  call void @_ZN4node8ListNodeINS_4quic6StreamEE6RemoveEv(ptr noundef nonnull align 8 dereferenceable(16) %stream_queue_)
  ret void
}