; Function Attrs: mustprogress nofree norecurse nosync nounwind willreturn memory(write, argmem: readwrite, inaccessiblemem: none) uwtable
define dso_local void @_ZN4node4quic6Stream10UnscheduleEv(ptr noundef nonnull align 8 dereferenceable(256) %this) local_unnamed_addr #11 align 2 {
entry:
  %stream_queue_ = getelementptr inbounds i8, ptr %this, i64 240
  %next_.i = getelementptr inbounds i8, ptr %this, i64 248
  %0 = load ptr, ptr %next_.i, align 8
  %1 = load ptr, ptr %stream_queue_, align 8
  %next_2.i = getelementptr inbounds i8, ptr %1, i64 8
  store ptr %0, ptr %next_2.i, align 8
  %2 = load ptr, ptr %stream_queue_, align 8
  store ptr %2, ptr %0, align 8
  store ptr %stream_queue_, ptr %stream_queue_, align 8
  store ptr %stream_queue_, ptr %next_.i, align 8
  ret void
}